target datalayout = "e-m:e-p270:32:32-p271:32:32-p272:64:64-i64:64-i128:128-f80:128-n8:16:32:64-S128"
target triple = "x86_64-pc-linux-gnu"

@.str.9 = private unnamed_addr constant [36 x i8] c"../openssl/test/sm2_internal_test.c\00", align 1
@.str.27 = private unnamed_addr constant [21 x i8] c"BN_hex2bn(&p, p_hex)\00", align 1
@.str.28 = private unnamed_addr constant [21 x i8] c"BN_hex2bn(&a, a_hex)\00", align 1
@.str.29 = private unnamed_addr constant [21 x i8] c"BN_hex2bn(&b, b_hex)\00", align 1
@.str.30 = private unnamed_addr constant [6 x i8] c"group\00", align 1
@.str.31 = private unnamed_addr constant [10 x i8] c"generator\00", align 1
@.str.32 = private unnamed_addr constant [23 x i8] c"BN_hex2bn(&g_x, x_hex)\00", align 1
@.str.33 = private unnamed_addr constant [23 x i8] c"BN_hex2bn(&g_y, y_hex)\00", align 1
@.str.34 = private unnamed_addr constant [66 x i8] c"EC_POINT_set_affine_coordinates(group, generator, g_x, g_y, NULL)\00", align 1
@.str.35 = private unnamed_addr constant [29 x i8] c"BN_hex2bn(&order, order_hex)\00", align 1
@.str.36 = private unnamed_addr constant [25 x i8] c"BN_hex2bn(&cof, cof_hex)\00", align 1
@.str.37 = private unnamed_addr constant [53 x i8] c"EC_GROUP_set_generator(group, generator, order, cof)\00", align 1

; Function Attrs: nounwind uwtable
define internal ptr @create_EC_group(ptr noundef %0, ptr noundef %1, ptr noundef %2, ptr noundef %3, ptr noundef %4, ptr noundef %5, ptr noundef %6) #0 {
  %8 = alloca ptr, align 8
  %9 = alloca ptr, align 8
  %10 = alloca ptr, align 8
  %11 = alloca ptr, align 8
  %12 = alloca ptr, align 8
  %13 = alloca ptr, align 8
  %14 = alloca ptr, align 8
  %15 = alloca ptr, align 8
  %16 = alloca ptr, align 8
  %17 = alloca ptr, align 8
  %18 = alloca ptr, align 8
  %19 = alloca ptr, align 8
  %20 = alloca ptr, align 8
  %21 = alloca ptr, align 8
  %22 = alloca ptr, align 8
  %23 = alloca ptr, align 8
  %24 = alloca i32, align 4
  store ptr %0, ptr %8, align 8, !tbaa !13
  store ptr %1, ptr %9, align 8, !tbaa !13
  store ptr %2, ptr %10, align 8, !tbaa !13
  store ptr %3, ptr %11, align 8, !tbaa !13
  store ptr %4, ptr %12, align 8, !tbaa !13
  store ptr %5, ptr %13, align 8, !tbaa !13
  store ptr %6, ptr %14, align 8, !tbaa !13
  call void @llvm.lifetime.start.p0(i64 8, ptr %15) #4
  store ptr null, ptr %15, align 8, !tbaa !15
  call void @llvm.lifetime.start.p0(i64 8, ptr %16) #4
  store ptr null, ptr %16, align 8, !tbaa !15
  call void @llvm.lifetime.start.p0(i64 8, ptr %17) #4
  store ptr null, ptr %17, align 8, !tbaa !15
  call void @llvm.lifetime.start.p0(i64 8, ptr %18) #4
  store ptr null, ptr %18, align 8, !tbaa !15
  call void @llvm.lifetime.start.p0(i64 8, ptr %19) #4
  store ptr null, ptr %19, align 8, !tbaa !15
  call void @llvm.lifetime.start.p0(i64 8, ptr %20) #4
  store ptr null, ptr %20, align 8, !tbaa !15
  call void @llvm.lifetime.start.p0(i64 8, ptr %21) #4
  store ptr null, ptr %21, align 8, !tbaa !15
  call void @llvm.lifetime.start.p0(i64 8, ptr %22) #4
  store ptr null, ptr %22, align 8, !tbaa !17
  call void @llvm.lifetime.start.p0(i64 8, ptr %23) #4
  store ptr null, ptr %23, align 8, !tbaa !11
  call void @llvm.lifetime.start.p0(i64 4, ptr %24) #4
  store i32 0, ptr %24, align 4, !tbaa !9
  %25 = load ptr, ptr %8, align 8, !tbaa !13
  %26 = call i32 @BN_hex2bn(ptr noundef %15, ptr noundef %25)
  %27 = icmp ne i32 %26, 0
  %28 = zext i1 %27 to i32
  %29 = call i32 @test_true(ptr noundef @.str.9, i32 noundef 92, ptr noundef @.str.27, i32 noundef %28)
  %30 = icmp ne i32 %29, 0
  br i1 %30, label %31, label %45

31:                                               ; preds = %7
  %32 = load ptr, ptr %9, align 8, !tbaa !13
  %33 = call i32 @BN_hex2bn(ptr noundef %16, ptr noundef %32)
  %34 = icmp ne i32 %33, 0
  %35 = zext i1 %34 to i32
  %36 = call i32 @test_true(ptr noundef @.str.9, i32 noundef 93, ptr noundef @.str.28, i32 noundef %35)
  %37 = icmp ne i32 %36, 0
  br i1 %37, label %38, label %45

38:                                               ; preds = %31
  %39 = load ptr, ptr %10, align 8, !tbaa !13
  %40 = call i32 @BN_hex2bn(ptr noundef %17, ptr noundef %39)
  %41 = icmp ne i32 %40, 0
  %42 = zext i1 %41 to i32
  %43 = call i32 @test_true(ptr noundef @.str.9, i32 noundef 94, ptr noundef @.str.29, i32 noundef %42)
  %44 = icmp ne i32 %43, 0
  br i1 %44, label %46, label %45

45:                                               ; preds = %38, %31, %7
  br label %113

46:                                               ; preds = %38
  %47 = load ptr, ptr %15, align 8, !tbaa !15
  %48 = load ptr, ptr %16, align 8, !tbaa !15
  %49 = load ptr, ptr %17, align 8, !tbaa !15
  %50 = call ptr @EC_GROUP_new_curve_GFp(ptr noundef %47, ptr noundef %48, ptr noundef %49, ptr noundef null)
  store ptr %50, ptr %23, align 8, !tbaa !11
  %51 = load ptr, ptr %23, align 8, !tbaa !11
  %52 = call i32 @test_ptr(ptr noundef @.str.9, i32 noundef 98, ptr noundef @.str.30, ptr noundef %51)
  %53 = icmp ne i32 %52, 0
  br i1 %53, label %55, label %54

54:                                               ; preds = %46
  br label %113

55:                                               ; preds = %46
  %56 = load ptr, ptr %23, align 8, !tbaa !11
  %57 = call ptr @EC_POINT_new(ptr noundef %56)
  store ptr %57, ptr %22, align 8, !tbaa !17
  %58 = load ptr, ptr %22, align 8, !tbaa !17
  %59 = call i32 @test_ptr(ptr noundef @.str.9, i32 noundef 102, ptr noundef @.str.31, ptr noundef %58)
  %60 = icmp ne i32 %59, 0
  br i1 %60, label %62, label %61

61:                                               ; preds = %55
  br label %113

62:                                               ; preds = %55
  %63 = load ptr, ptr %11, align 8, !tbaa !13
  %64 = call i32 @BN_hex2bn(ptr noundef %18, ptr noundef %63)
  %65 = icmp ne i32 %64, 0
  %66 = zext i1 %65 to i32
  %67 = call i32 @test_true(ptr noundef @.str.9, i32 noundef 105, ptr noundef @.str.32, i32 noundef %66)
  %68 = icmp ne i32 %67, 0
  br i1 %68, label %69, label %86

69:                                               ; preds = %62
  %70 = load ptr, ptr %12, align 8, !tbaa !13
  %71 = call i32 @BN_hex2bn(ptr noundef %19, ptr noundef %70)
  %72 = icmp ne i32 %71, 0
  %73 = zext i1 %72 to i32
  %74 = call i32 @test_true(ptr noundef @.str.9, i32 noundef 106, ptr noundef @.str.33, i32 noundef %73)
  %75 = icmp ne i32 %74, 0
  br i1 %75, label %76, label %86

76:                                               ; preds = %69
  %77 = load ptr, ptr %23, align 8, !tbaa !11
  %78 = load ptr, ptr %22, align 8, !tbaa !17
  %79 = load ptr, ptr %18, align 8, !tbaa !15
  %80 = load ptr, ptr %19, align 8, !tbaa !15
  %81 = call i32 @EC_POINT_set_affine_coordinates(ptr noundef %77, ptr noundef %78, ptr noundef %79, ptr noundef %80, ptr noundef null)
  %82 = icmp ne i32 %81, 0
  %83 = zext i1 %82 to i32
  %84 = call i32 @test_true(ptr noundef @.str.9, i32 noundef 108, ptr noundef @.str.34, i32 noundef %83)
  %85 = icmp ne i32 %84, 0
  br i1 %85, label %87, label %86

86:                                               ; preds = %76, %69, %62
  br label %113

87:                                               ; preds = %76
  %88 = load ptr, ptr %13, align 8, !tbaa !13
  %89 = call i32 @BN_hex2bn(ptr noundef %20, ptr noundef %88)
  %90 = icmp ne i32 %89, 0
  %91 = zext i1 %90 to i32
  %92 = call i32 @test_true(ptr noundef @.str.9, i32 noundef 111, ptr noundef @.str.35, i32 noundef %91)
  %93 = icmp ne i32 %92, 0
  br i1 %93, label %94, label %111

94:                                               ; preds = %87
  %95 = load ptr, ptr %14, align 8, !tbaa !13
  %96 = call i32 @BN_hex2bn(ptr noundef %21, ptr noundef %95)
  %97 = icmp ne i32 %96, 0
  %98 = zext i1 %97 to i32
  %99 = call i32 @test_true(ptr noundef @.str.9, i32 noundef 112, ptr noundef @.str.36, i32 noundef %98)
  %100 = icmp ne i32 %99, 0
  br i1 %100, label %101, label %111

101:                                              ; preds = %94
  %102 = load ptr, ptr %23, align 8, !tbaa !11
  %103 = load ptr, ptr %22, align 8, !tbaa !17
  %104 = load ptr, ptr %20, align 8, !tbaa !15
  %105 = load ptr, ptr %21, align 8, !tbaa !15
  %106 = call i32 @EC_GROUP_set_generator(ptr noundef %102, ptr noundef %103, ptr noundef %104, ptr noundef %105)
  %107 = icmp ne i32 %106, 0
  %108 = zext i1 %107 to i32
  %109 = call i32 @test_true(ptr noundef @.str.9, i32 noundef 113, ptr noundef @.str.37, i32 noundef %108)
  %110 = icmp ne i32 %109, 0
  br i1 %110, label %112, label %111

111:                                              ; preds = %101, %94, %87
  br label %113

112:                                              ; preds = %101
  store i32 1, ptr %24, align 4, !tbaa !9
  br label %113

113:                                              ; preds = %112, %111, %86, %61, %54, %45
  %114 = load ptr, ptr %15, align 8, !tbaa !15
  call void @BN_free(ptr noundef %114)
  %115 = load ptr, ptr %16, align 8, !tbaa !15
  call void @BN_free(ptr noundef %115)
  %116 = load ptr, ptr %17, align 8, !tbaa !15
  call void @BN_free(ptr noundef %116)
  %117 = load ptr, ptr %18, align 8, !tbaa !15
  call void @BN_free(ptr noundef %117)
  %118 = load ptr, ptr %19, align 8, !tbaa !15
  call void @BN_free(ptr noundef %118)
  %119 = load ptr, ptr %22, align 8, !tbaa !17
  call void @EC_POINT_free(ptr noundef %119)
  %120 = load ptr, ptr %20, align 8, !tbaa !15
  call void @BN_free(ptr noundef %120)
  %121 = load ptr, ptr %21, align 8, !tbaa !15
  call void @BN_free(ptr noundef %121)
  %122 = load i32, ptr %24, align 4, !tbaa !9
  %123 = icmp ne i32 %122, 0
  br i1 %123, label %126, label %124

124:                                              ; preds = %113
  %125 = load ptr, ptr %23, align 8, !tbaa !11
  call void @EC_GROUP_free(ptr noundef %125)
  store ptr null, ptr %23, align 8, !tbaa !11
  br label %126

126:                                              ; preds = %124, %113
  %127 = load ptr, ptr %23, align 8, !tbaa !11
  call void @llvm.lifetime.end.p0(i64 4, ptr %24) #4
  call void @llvm.lifetime.end.p0(i64 8, ptr %23) #4
  call void @llvm.lifetime.end.p0(i64 8, ptr %22) #4
  call void @llvm.lifetime.end.p0(i64 8, ptr %21) #4
  call void @llvm.lifetime.end.p0(i64 8, ptr %20) #4
  call void @llvm.lifetime.end.p0(i64 8, ptr %19) #4
  call void @llvm.lifetime.end.p0(i64 8, ptr %18) #4
  call void @llvm.lifetime.end.p0(i64 8, ptr %17) #4
  call void @llvm.lifetime.end.p0(i64 8, ptr %16) #4
  call void @llvm.lifetime.end.p0(i64 8, ptr %15) #4
  ret ptr %127
}