; Function Attrs: nounwind uwtable
define internal fastcc noundef ptr @create_EC_group(ptr noundef %0, ptr noundef %1, ptr noundef %2, ptr noundef %3, ptr noundef %4, ptr noundef %5) unnamed_addr #0 {
  %7 = alloca ptr, align 8
  %8 = alloca ptr, align 8
  %9 = alloca ptr, align 8
  %10 = alloca ptr, align 8
  %11 = alloca ptr, align 8
  %12 = alloca ptr, align 8
  %13 = alloca ptr, align 8
  call void @llvm.lifetime.start.p0(i64 8, ptr nonnull %7) #4
  store ptr null, ptr %7, align 8, !tbaa !9
  call void @llvm.lifetime.start.p0(i64 8, ptr nonnull %8) #4
  store ptr null, ptr %8, align 8, !tbaa !9
  call void @llvm.lifetime.start.p0(i64 8, ptr nonnull %9) #4
  store ptr null, ptr %9, align 8, !tbaa !9
  call void @llvm.lifetime.start.p0(i64 8, ptr nonnull %10) #4
  store ptr null, ptr %10, align 8, !tbaa !9
  call void @llvm.lifetime.start.p0(i64 8, ptr nonnull %11) #4
  store ptr null, ptr %11, align 8, !tbaa !9
  call void @llvm.lifetime.start.p0(i64 8, ptr nonnull %12) #4
  store ptr null, ptr %12, align 8, !tbaa !9
  call void @llvm.lifetime.start.p0(i64 8, ptr nonnull %13) #4
  store ptr null, ptr %13, align 8, !tbaa !9
  %14 = call i32 @BN_hex2bn(ptr noundef nonnull %7, ptr noundef %0) #4
  %15 = icmp ne i32 %14, 0
  %16 = zext i1 %15 to i32
  %17 = call i32 @test_true(ptr noundef nonnull @.str.9, i32 noundef 92, ptr noundef nonnull @.str.27, i32 noundef %16) #4
  %.not = icmp eq i32 %17, 0
  br i1 %.not, label %71, label %18

18:                                               ; preds = %6
  %19 = call i32 @BN_hex2bn(ptr noundef nonnull %8, ptr noundef %1) #4
  %20 = icmp ne i32 %19, 0
  %21 = zext i1 %20 to i32
  %22 = call i32 @test_true(ptr noundef nonnull @.str.9, i32 noundef 93, ptr noundef nonnull @.str.28, i32 noundef %21) #4
  %.not19 = icmp eq i32 %22, 0
  br i1 %.not19, label %71, label %23

23:                                               ; preds = %18
  %24 = call i32 @BN_hex2bn(ptr noundef nonnull %9, ptr noundef %2) #4
  %25 = icmp ne i32 %24, 0
  %26 = zext i1 %25 to i32
  %27 = call i32 @test_true(ptr noundef nonnull @.str.9, i32 noundef 94, ptr noundef nonnull @.str.29, i32 noundef %26) #4
  %.not20 = icmp eq i32 %27, 0
  br i1 %.not20, label %71, label %28

28:                                               ; preds = %23
  %29 = load ptr, ptr %7, align 8, !tbaa !9
  %30 = load ptr, ptr %8, align 8, !tbaa !9
  %31 = load ptr, ptr %9, align 8, !tbaa !9
  %32 = call ptr @EC_GROUP_new_curve_GFp(ptr noundef %29, ptr noundef %30, ptr noundef %31, ptr noundef null) #4
  %33 = call i32 @test_ptr(ptr noundef nonnull @.str.9, i32 noundef 98, ptr noundef nonnull @.str.30, ptr noundef %32) #4
  %.not21 = icmp eq i32 %33, 0
  br i1 %.not21, label %71, label %34

34:                                               ; preds = %28
  %35 = call ptr @EC_POINT_new(ptr noundef %32) #4
  %36 = call i32 @test_ptr(ptr noundef nonnull @.str.9, i32 noundef 102, ptr noundef nonnull @.str.31, ptr noundef %35) #4
  %.not22 = icmp eq i32 %36, 0
  br i1 %.not22, label %71, label %37

37:                                               ; preds = %34
  %38 = call i32 @BN_hex2bn(ptr noundef nonnull %10, ptr noundef %3) #4
  %39 = icmp ne i32 %38, 0
  %40 = zext i1 %39 to i32
  %41 = call i32 @test_true(ptr noundef nonnull @.str.9, i32 noundef 105, ptr noundef nonnull @.str.32, i32 noundef %40) #4
  %.not23 = icmp eq i32 %41, 0
  br i1 %.not23, label %71, label %42

42:                                               ; preds = %37
  %43 = call i32 @BN_hex2bn(ptr noundef nonnull %11, ptr noundef %4) #4
  %44 = icmp ne i32 %43, 0
  %45 = zext i1 %44 to i32
  %46 = call i32 @test_true(ptr noundef nonnull @.str.9, i32 noundef 106, ptr noundef nonnull @.str.33, i32 noundef %45) #4
  %.not24 = icmp eq i32 %46, 0
  br i1 %.not24, label %71, label %47

47:                                               ; preds = %42
  %48 = load ptr, ptr %10, align 8, !tbaa !9
  %49 = load ptr, ptr %11, align 8, !tbaa !9
  %50 = call i32 @EC_POINT_set_affine_coordinates(ptr noundef %32, ptr noundef %35, ptr noundef %48, ptr noundef %49, ptr noundef null) #4
  %51 = icmp ne i32 %50, 0
  %52 = zext i1 %51 to i32
  %53 = call i32 @test_true(ptr noundef nonnull @.str.9, i32 noundef 108, ptr noundef nonnull @.str.34, i32 noundef %52) #4
  %.not25 = icmp eq i32 %53, 0
  br i1 %.not25, label %71, label %54

54:                                               ; preds = %47
  %55 = call i32 @BN_hex2bn(ptr noundef nonnull %12, ptr noundef %5) #4
  %56 = icmp ne i32 %55, 0
  %57 = zext i1 %56 to i32
  %58 = call i32 @test_true(ptr noundef nonnull @.str.9, i32 noundef 111, ptr noundef nonnull @.str.35, i32 noundef %57) #4
  %.not26 = icmp eq i32 %58, 0
  br i1 %.not26, label %71, label %59

59:                                               ; preds = %54
  %60 = call i32 @BN_hex2bn(ptr noundef nonnull %13, ptr noundef nonnull @.str.8) #4
  %61 = icmp ne i32 %60, 0
  %62 = zext i1 %61 to i32
  %63 = call i32 @test_true(ptr noundef nonnull @.str.9, i32 noundef 112, ptr noundef nonnull @.str.36, i32 noundef %62) #4
  %.not27 = icmp eq i32 %63, 0
  br i1 %.not27, label %71, label %64

64:                                               ; preds = %59
  %65 = load ptr, ptr %12, align 8, !tbaa !9
  %66 = load ptr, ptr %13, align 8, !tbaa !9
  %67 = call i32 @EC_GROUP_set_generator(ptr noundef %32, ptr noundef %35, ptr noundef %65, ptr noundef %66) #4
  %68 = icmp ne i32 %67, 0
  %69 = zext i1 %68 to i32
  %70 = call i32 @test_true(ptr noundef nonnull @.str.9, i32 noundef 113, ptr noundef nonnull @.str.37, i32 noundef %69) #4
  %.not28 = icmp eq i32 %70, 0
  br label %71

71:                                               ; preds = %64, %54, %59, %37, %42, %47, %34, %28, %6, %18, %23
  %.018 = phi ptr [ %35, %59 ], [ %35, %54 ], [ %35, %47 ], [ %35, %42 ], [ %35, %37 ], [ %35, %34 ], [ null, %28 ], [ null, %23 ], [ null, %18 ], [ null, %6 ], [ %35, %64 ]
  %.017 = phi ptr [ %32, %59 ], [ %32, %54 ], [ %32, %47 ], [ %32, %42 ], [ %32, %37 ], [ %32, %34 ], [ %32, %28 ], [ null, %23 ], [ null, %18 ], [ null, %6 ], [ %32, %64 ]
  %.not29 = phi i1 [ true, %59 ], [ true, %54 ], [ true, %47 ], [ true, %42 ], [ true, %37 ], [ true, %34 ], [ true, %28 ], [ true, %23 ], [ true, %18 ], [ true, %6 ], [ %.not28, %64 ]
  %72 = load ptr, ptr %7, align 8, !tbaa !9
  call void @BN_free(ptr noundef %72) #4
  %73 = load ptr, ptr %8, align 8, !tbaa !9
  call void @BN_free(ptr noundef %73) #4
  %74 = load ptr, ptr %9, align 8, !tbaa !9
  call void @BN_free(ptr noundef %74) #4
  %75 = load ptr, ptr %10, align 8, !tbaa !9
  call void @BN_free(ptr noundef %75) #4
  %76 = load ptr, ptr %11, align 8, !tbaa !9
  call void @BN_free(ptr noundef %76) #4
  call void @EC_POINT_free(ptr noundef %.018) #4
  %77 = load ptr, ptr %12, align 8, !tbaa !9
  call void @BN_free(ptr noundef %77) #4
  %78 = load ptr, ptr %13, align 8, !tbaa !9
  call void @BN_free(ptr noundef %78) #4
  br i1 %.not29, label %79, label %80

79:                                               ; preds = %71
  call void @EC_GROUP_free(ptr noundef %.017) #4
  br label %80

80:                                               ; preds = %79, %71
  %.1 = phi ptr [ %.017, %71 ], [ null, %79 ]
  call void @llvm.lifetime.end.p0(i64 8, ptr nonnull %13) #4
  call void @llvm.lifetime.end.p0(i64 8, ptr nonnull %12) #4
  call void @llvm.lifetime.end.p0(i64 8, ptr nonnull %11) #4
  call void @llvm.lifetime.end.p0(i64 8, ptr nonnull %10) #4
  call void @llvm.lifetime.end.p0(i64 8, ptr nonnull %9) #4
  call void @llvm.lifetime.end.p0(i64 8, ptr nonnull %8) #4
  call void @llvm.lifetime.end.p0(i64 8, ptr nonnull %7) #4
  ret ptr %.1
}